target datalayout = "e-m:e-p270:32:32-p271:32:32-p272:64:64-i64:64-i128:128-f80:128-n8:16:32:64-S128"
target triple = "x86_64-pc-linux-gnu"

%struct.EvalContext = type { ptr, ptr, i32, %struct.AVChannelLayout, ptr, i32, i32, i32, i64, ptr, ptr, i32, i64, i64, [6 x double], ptr }
%struct.AVChannelLayout = type { i32, i32, %union.anon.1, ptr }
%union.anon.1 = type { i64 }

; Function Attrs: nounwind uwtable
define internal double @val(ptr noundef %0, double noundef %1) #1 {
  %3 = alloca ptr, align 8
  %4 = alloca double, align 8
  %5 = alloca ptr, align 8
  store ptr %0, ptr %3, align 8, !tbaa !47
  store double %1, ptr %4, align 8, !tbaa !68
  call void @llvm.lifetime.start.p0(i64 8, ptr %5) #9
  %6 = load ptr, ptr %3, align 8, !tbaa !47
  store ptr %6, ptr %5, align 8, !tbaa !22
  %7 = load ptr, ptr %5, align 8, !tbaa !22
  %8 = getelementptr inbounds nuw %struct.EvalContext, ptr %7, i32 0, i32 15
  %9 = load ptr, ptr %8, align 8, !tbaa !94
  %10 = load double, ptr %4, align 8, !tbaa !68
  %11 = fptosi double %10 to i32
  %12 = load ptr, ptr %5, align 8, !tbaa !22
  %13 = getelementptr inbounds nuw %struct.EvalContext, ptr %12, i32 0, i32 6
  %14 = load i32, ptr %13, align 4, !tbaa !95
  %15 = sub nsw i32 %14, 1
  %16 = icmp sgt i32 %11, %15
  br i1 %16, label %17, label %22

17:                                               ; preds = %2
  %18 = load ptr, ptr %5, align 8, !tbaa !22
  %19 = getelementptr inbounds nuw %struct.EvalContext, ptr %18, i32 0, i32 6
  %20 = load i32, ptr %19, align 4, !tbaa !95
  %21 = sub nsw i32 %20, 1
  br label %25

22:                                               ; preds = %2
  %23 = load double, ptr %4, align 8, !tbaa !68
  %24 = fptosi double %23 to i32
  br label %25

25:                                               ; preds = %22, %17
  %26 = phi i32 [ %21, %17 ], [ %24, %22 ]
  %27 = sext i32 %26 to i64
  %28 = getelementptr inbounds double, ptr %9, i64 %27
  %29 = load double, ptr %28, align 8, !tbaa !68
  call void @llvm.lifetime.end.p0(i64 8, ptr %5) #9
  ret double %29
}