; Function Attrs: mustprogress nofree norecurse nosync nounwind willreturn memory(read, inaccessiblemem: none) uwtable
define internal double @val(ptr noundef readonly captures(none) %0, double noundef %1) #6 {
  %3 = getelementptr inbounds nuw i8, ptr %0, i64 168
  %4 = load ptr, ptr %3, align 8, !tbaa !81
  %5 = fptosi double %1 to i32
  %6 = getelementptr inbounds nuw i8, ptr %0, i64 60
  %7 = load i32, ptr %6, align 4, !tbaa !82
  %.not = icmp sgt i32 %7, %5
  %8 = add nsw i32 %7, -1
  %9 = select i1 %.not, i32 %5, i32 %8
  %10 = sext i32 %9 to i64
  %11 = getelementptr inbounds double, ptr %4, i64 %10
  %12 = load double, ptr %11, align 8, !tbaa !59
  ret double %12
}